; Function Attrs: mustprogress uwtable
define void @_ZN6LibRaw13parseCR3_FreeEv(ptr noundef nonnull align 8 dereferenceable(767680) %0) local_unnamed_addr #2 align 2 {
  %2 = getelementptr inbounds nuw i8, ptr %0, i64 384044
  %3 = load i32, ptr %2, align 4, !tbaa !32
  %sext = shl i32 %3, 16
  %4 = ashr exact i32 %sext, 16
  %5 = icmp slt i32 %4, 0
  br i1 %5, label %27, label %.preheader

.preheader:                                       ; preds = %1
  %6 = getelementptr inbounds nuw i8, ptr %0, i64 381992
  %umin = tail call i32 @llvm.umin.i32(i32 %4, i32 15)
  %7 = add nuw nsw i32 %umin, 1
  %wide.trip.count = zext nneg i32 %7 to i64
  br label %9

8:                                                ; preds = %22
  store i32 -1, ptr %2, align 4, !tbaa !32
  br label %27

9:                                                ; preds = %.preheader, %22
  %indvars.iv = phi i64 [ 0, %.preheader ], [ %indvars.iv.next, %22 ]
  %10 = getelementptr inbounds nuw [16 x %struct.crx_data_header_t], ptr %6, i64 0, i64 %indvars.iv
  %11 = getelementptr inbounds nuw i8, ptr %10, i64 80
  %12 = load ptr, ptr %11, align 8, !tbaa !18
  %.not = icmp eq ptr %12, null
  br i1 %.not, label %14, label %13

13:                                               ; preds = %9
  tail call void @_ZN6LibRaw4freeEPv(ptr noundef nonnull align 8 dereferenceable(767680) %0, ptr noundef nonnull %12)
  store ptr null, ptr %11, align 8, !tbaa !18
  br label %14

14:                                               ; preds = %13, %9
  %15 = getelementptr inbounds nuw i8, ptr %10, i64 120
  %16 = load ptr, ptr %15, align 8, !tbaa !16
  %.not23 = icmp eq ptr %16, null
  br i1 %.not23, label %18, label %17

17:                                               ; preds = %14
  tail call void @_ZN6LibRaw4freeEPv(ptr noundef nonnull align 8 dereferenceable(767680) %0, ptr noundef nonnull %16)
  store ptr null, ptr %15, align 8, !tbaa !16
  br label %18

18:                                               ; preds = %17, %14
  %19 = getelementptr inbounds nuw i8, ptr %10, i64 104
  %20 = load ptr, ptr %19, align 8, !tbaa !26
  %.not24 = icmp eq ptr %20, null
  br i1 %.not24, label %22, label %21

21:                                               ; preds = %18
  tail call void @_ZN6LibRaw4freeEPv(ptr noundef nonnull align 8 dereferenceable(767680) %0, ptr noundef nonnull %20)
  store ptr null, ptr %19, align 8, !tbaa !26
  br label %22

22:                                               ; preds = %21, %18
  %23 = getelementptr inbounds nuw i8, ptr %10, i64 88
  store i32 0, ptr %23, align 8, !tbaa !17
  %24 = getelementptr inbounds nuw i8, ptr %10, i64 92
  store i32 0, ptr %24, align 4, !tbaa !6
  %25 = getelementptr inbounds nuw i8, ptr %10, i64 96
  store i32 0, ptr %25, align 8, !tbaa !25
  %26 = getelementptr inbounds nuw i8, ptr %10, i64 112
  store i32 0, ptr %26, align 8, !tbaa !15
  %indvars.iv.next = add nuw nsw i64 %indvars.iv, 1
  %exitcond.not = icmp eq i64 %indvars.iv.next, %wide.trip.count
  br i1 %exitcond.not, label %8, label %9, !llvm.loop !158

27:                                               ; preds = %1, %8
  ret void
}